Component: ARM Compiler 5.05 update 2 (build 169) Tool: armlink [4d0f33]

==============================================================================

Section Cross References

    smc.o(.text) refers to smc.o(i.CalcEstI) for CalcEstI
    smc.o(.text) refers to trig.o(.text) for DIV_Fun
    smc.o(.text) refers to smc.o(i.CalcBEMF) for CalcBEMF
    smc.o(.text) refers to pmsm.o(.data) for PrevTheta
    smc.o(.text) refers to smc.o(.data) for temptheta
    initmcu.o(.text) refers to swm1800_gpio.o(.text) for GPIO_Init
    initmcu.o(.text) refers to swm1800_port.o(.text) for PORT_Init
    fdweak.o(.text) refers to trig.o(.text) for DIV_Fun
    fdweak.o(.text) refers to fdweak.o(.bss) for FdWeakParm
    meascurr.o(.text) refers to meascurr.o(.data) for CorrADC0
    svgen.o(.text) refers to trig.o(.text) for DIV_Fun
    svgen.o(.text) refers to svgen.o(i.__ARM_common_switch8) for __ARM_common_switch8
    svgen.o(.text) refers to idiv.o(.text) for __aeabi_idivmod
    svgen.o(.text) refers to svgen.o(.constdata) for sin_dat
    svgen.o(.text) refers to pmsm.o(.data) for Sector
    svgen.o(.text) refers to svgen.o(.data) for sin60_a_val
    trig.o(.text) refers to trig.o(.constdata) for SinTable
    pmsm.o(.text) refers to swm1800_port.o(.text) for PORT_Init
    pmsm.o(.text) refers to swm1800_uart.o(.text) for UART_Init
    pmsm.o(.text) refers to swm1800_irqmux.o(.text) for IRQ_Connect
    pmsm.o(.text) refers to pi.o(.text) for InitPI
    pmsm.o(.text) refers to idiv.o(.text) for __aeabi_idivmod
    pmsm.o(.text) refers to uidiv.o(.text) for __aeabi_uidivmod
    pmsm.o(.text) refers to swm1800_gpio.o(.text) for GPIO_Init
    pmsm.o(.text) refers to swm1800_exti.o(.text) for EXTI_Init
    pmsm.o(.text) refers to swm1800_timr.o(.text) for TIMR_Init
    pmsm.o(.text) refers to swm1800_pwm.o(.text) for PWM_Init
    pmsm.o(.text) refers to swm1800_adc.o(.text) for ADC_Init
    pmsm.o(.text) refers to pmsm.o(.bss) for PIParmD
    pmsm.o(.text) refers to pmsm.o(.data) for SPREF
    pmsm.o(.text) refers to meascurr.o(.text) for InitMeasCompCurr
    pmsm.o(.text) refers to system_swm1800.o(.text) for SystemInit
    pmsm.o(.text) refers to swm1800_div.o(.text) for DIV_Init
    pmsm.o(.text) refers to swm1800_cordic.o(.text) for CORDIC_Init
    pmsm.o(.text) refers to smc.o(.text) for SMCInit
    pmsm.o(.text) refers to initmcu.o(.text) for SetupPorts
    pmsm.o(.text) refers to fdweak.o(.text) for FWInit
    pmsm.o(.text) refers to faultprotect.o(.text) for motor_fault_init
    pmsm.o(.text) refers to fflti.o(.text) for __aeabi_i2f
    pmsm.o(.text) refers to fmul.o(.text) for __aeabi_fmul
    pmsm.o(.text) refers to fdiv.o(.text) for __aeabi_fdiv
    pmsm.o(.text) refers to ffixi.o(.text) for __aeabi_f2iz
    pmsm.o(.text) refers to trig.o(.text) for sqrt_16
    pmsm.o(.text) refers to clrkpark.o(.text) for ClarkePark
    pmsm.o(.text) refers to invpark.o(.text) for InvPark
    pmsm.o(.text) refers to calcref.o(.text) for CalcRefVec
    pmsm.o(.text) refers to svgen.o(.text) for CalcSVGen
    faultprotect.o(.text) refers to svgen.o(i.__ARM_common_switch8) for __ARM_common_switch8
    faultprotect.o(.text) refers to dflti.o(.text) for __aeabi_i2d
    faultprotect.o(.text) refers to cdrcmple.o(.text) for __aeabi_cdrcmple
    faultprotect.o(.text) refers to cdcmple.o(.text) for __aeabi_cdcmple
    faultprotect.o(.text) refers to pi.o(.text) for gabs
    faultprotect.o(.text) refers to pmsm.o(.data) for TargetDCbus
    faultprotect.o(.text) refers to faultprotect.o(.data) for dcbus_over_times
    faultprotect.o(.text) refers to meascurr.o(.data) for CorrADC0
    faultprotect.o(.data) refers to faultprotect.o(.text) for phase_current_protect
    swm1800_can.o(.text) refers to uidiv.o(.text) for __aeabi_uidivmod
    swm1800_can.o(.text) refers to system_swm1800.o(.data) for SystemCoreClock
    swm1800_cordic.o(.text) refers to swm1800_div.o(.text) for DIV_Init
    swm1800_dma.o(.text) refers to svgen.o(i.__ARM_common_switch8) for __ARM_common_switch8
    swm1800_flash.o(.text) refers to swm1800_cache.o(.text) for CACHE_Invalid
    swm1800_flash.o(.text) refers to swm1800_flash.o(.data) for IAPfunc
    swm1800_gpio.o(.text) refers to swm1800_port.o(.text) for PORT_Init
    swm1800_i2c.o(.text) refers to uidiv.o(.text) for __aeabi_uidivmod
    swm1800_i2c.o(.text) refers to system_swm1800.o(.data) for SystemCoreClock
    swm1800_slcd.o(.text) refers to uidiv.o(.text) for __aeabi_uidivmod
    swm1800_slcd.o(.text) refers to system_swm1800.o(.data) for SystemCoreClock
    swm1800_uart.o(.text) refers to uidiv.o(.text) for __aeabi_uidivmod
    swm1800_uart.o(.text) refers to system_swm1800.o(.data) for SystemCoreClock
    system_swm1800.o(.text) refers to swm1800_port.o(.text) for PORT_Init
    system_swm1800.o(.text) refers to svgen.o(i.__ARM_common_switch8) for __ARM_common_switch8
    system_swm1800.o(.text) refers to system_swm1800.o(.data) for SystemCoreClock
    startup_swm1800.o(RESET) refers to startup_swm1800.o(STACK) for Stack_Mem
    startup_swm1800.o(RESET) refers to startup_swm1800.o(.text) for NMI_Handler
    startup_swm1800.o(RESET) refers to pmsm.o(.text) for IRQ0_Handler
    startup_swm1800.o(RESET) refers to entry.o(.ARM.Collect$$$$00000000) for __main
    entry.o(.ARM.Collect$$$$00000000) refers (Special) to entry10a.o(.ARM.Collect$$$$0000000D) for __rt_final_cpp
    entry.o(.ARM.Collect$$$$00000000) refers (Special) to entry11a.o(.ARM.Collect$$$$0000000F) for __rt_final_exit
    entry.o(.ARM.Collect$$$$00000000) refers (Special) to entry7b.o(.ARM.Collect$$$$00000008) for _main_clock
    entry.o(.ARM.Collect$$$$00000000) refers (Special) to entry8b.o(.ARM.Collect$$$$0000000A) for _main_cpp_init
    entry.o(.ARM.Collect$$$$00000000) refers (Special) to entry9a.o(.ARM.Collect$$$$0000000B) for _main_init
    entry.o(.ARM.Collect$$$$00000000) refers (Special) to entry5.o(.ARM.Collect$$$$00000004) for _main_scatterload
    entry.o(.ARM.Collect$$$$00000000) refers (Special) to entry2.o(.ARM.Collect$$$$00000001) for _main_stk
    idiv.o(.text) refers to uidiv.o(.text) for __aeabi_uidivmod
    fmul.o(.text) refers (Special) to iusefp.o(.text) for __I$use$fp
    fdiv.o(.text) refers (Special) to iusefp.o(.text) for __I$use$fp
    fdiv.o(.text) refers to fepilogue.o(.text) for _float_round
    fflti.o(.text) refers (Special) to iusefp.o(.text) for __I$use$fp
    fflti.o(.text) refers to fepilogue.o(.text) for _float_epilogue
    dflti.o(.text) refers (Special) to iusefp.o(.text) for __I$use$fp
    dflti.o(.text) refers to depilogue.o(.text) for _double_epilogue
    ffixi.o(.text) refers (Special) to iusefp.o(.text) for __I$use$fp
    cdcmple.o(.text) refers (Special) to iusefp.o(.text) for __I$use$fp
    cdrcmple.o(.text) refers (Special) to iusefp.o(.text) for __I$use$fp
    entry2.o(.ARM.Collect$$$$00000001) refers to entry2.o(.ARM.Collect$$$$00002712) for __lit__00000000
    entry2.o(.ARM.Collect$$$$00002712) refers to startup_swm1800.o(STACK) for __initial_sp
    entry2.o(__vectab_stack_and_reset_area) refers to startup_swm1800.o(STACK) for __initial_sp
    entry2.o(__vectab_stack_and_reset_area) refers to entry.o(.ARM.Collect$$$$00000000) for __main
    entry5.o(.ARM.Collect$$$$00000004) refers to init.o(.text) for __scatterload
    entry9a.o(.ARM.Collect$$$$0000000B) refers to pmsm.o(.text) for main
    entry9b.o(.ARM.Collect$$$$0000000C) refers to pmsm.o(.text) for main
    depilogue.o(.text) refers to depilogue.o(i.__ARM_clz) for __ARM_clz
    depilogue.o(.text) refers to llshl.o(.text) for __aeabi_llsl
    depilogue.o(.text) refers to llushr.o(.text) for __aeabi_llsr
    init.o(.text) refers to entry5.o(.ARM.Collect$$$$00000004) for __main_after_scatterload


==============================================================================

Removing Unused input sections from the image.

    Removing swm1800_can.o(.text), (332 bytes).
    Removing swm1800_cmp.o(.text), (660 bytes).
    Removing swm1800_dma.o(.text), (968 bytes).
    Removing swm1800_flash.o(.text), (168 bytes).
    Removing swm1800_flash.o(.data), (4 bytes).
    Removing swm1800_i2c.o(.text), (272 bytes).
    Removing swm1800_sdadc.o(.text), (480 bytes).
    Removing swm1800_slcd.o(.text), (168 bytes).
    Removing swm1800_spi.o(.text), (440 bytes).
    Removing swm1800_wdt.o(.text), (102 bytes).
    Removing swm1800_cache.o(.text), (236 bytes).
    Removing core_cm0.o(.emb_text), (32 bytes).
    Removing startup_swm1800.o(HEAP), (0 bytes).

13 unused section(s) (total 3862 bytes) removed from the image.

==============================================================================

Image Symbol Table

    Local Symbols

    Symbol Name                              Value     Ov Type        Size  Object(Section)

    RESET                                    0x00000000   Section      200  startup_swm1800.o(RESET)
    ../clib/../cmprslib/zerorunl.c           0x00000000   Number         0  __dczerorl.o ABSOLUTE
    ../clib/microlib/division.c              0x00000000   Number         0  idiv.o ABSOLUTE
    ../clib/microlib/division.c              0x00000000   Number         0  uidiv.o ABSOLUTE
    ../clib/microlib/init/entry.s            0x00000000   Number         0  entry7a.o ABSOLUTE
    ../clib/microlib/init/entry.s            0x00000000   Number         0  entry2.o ABSOLUTE
    ../clib/microlib/init/entry.s            0x00000000   Number         0  entry5.o ABSOLUTE
    ../clib/microlib/init/entry.s            0x00000000   Number         0  entry7b.o ABSOLUTE
    ../clib/microlib/init/entry.s            0x00000000   Number         0  entry8a.o ABSOLUTE
    ../clib/microlib/init/entry.s            0x00000000   Number         0  entry8b.o ABSOLUTE
    ../clib/microlib/init/entry.s            0x00000000   Number         0  entry9a.o ABSOLUTE
    ../clib/microlib/init/entry.s            0x00000000   Number         0  entry.o ABSOLUTE
    ../clib/microlib/init/entry.s            0x00000000   Number         0  entry9b.o ABSOLUTE
    ../clib/microlib/init/entry.s            0x00000000   Number         0  entry10a.o ABSOLUTE
    ../clib/microlib/init/entry.s            0x00000000   Number         0  entry10b.o ABSOLUTE
    ../clib/microlib/init/entry.s            0x00000000   Number         0  entry11a.o ABSOLUTE
    ../clib/microlib/init/entry.s            0x00000000   Number         0  entry11b.o ABSOLUTE
    ../clib/microlib/longlong.c              0x00000000   Number         0  llshl.o ABSOLUTE
    ../clib/microlib/longlong.c              0x00000000   Number         0  llushr.o ABSOLUTE
    ../clib/microlib/stubs.s                 0x00000000   Number         0  iusefp.o ABSOLUTE
    ../fplib/microlib/fpdiv.c                0x00000000   Number         0  fdiv.o ABSOLUTE
    ../fplib/microlib/fpepilogue.c           0x00000000   Number         0  fepilogue.o ABSOLUTE
    ../fplib/microlib/fpepilogue.c           0x00000000   Number         0  depilogue.o ABSOLUTE
    ../fplib/microlib/fpfix.c                0x00000000   Number         0  ffixi.o ABSOLUTE
    ../fplib/microlib/fpflt.c                0x00000000   Number         0  fflti.o ABSOLUTE
    ../fplib/microlib/fpflt.c                0x00000000   Number         0  dflti.o ABSOLUTE
    ../fplib/microlib/fpmul.c                0x00000000   Number         0  fmul.o ABSOLUTE
    APP\CalcRef.c                            0x00000000   Number         0  calcref.o ABSOLUTE
    APP\ClrkPark.c                           0x00000000   Number         0  clrkpark.o ABSOLUTE
    APP\FdWeak.c                             0x00000000   Number         0  fdweak.o ABSOLUTE
    APP\InitMcu.c                            0x00000000   Number         0  initmcu.o ABSOLUTE
    APP\InvPark.c                            0x00000000   Number         0  invpark.o ABSOLUTE
    APP\MeasCurr.c                           0x00000000   Number         0  meascurr.o ABSOLUTE
    APP\PMSM.c                               0x00000000   Number         0  pmsm.o ABSOLUTE
    APP\Pi.c                                 0x00000000   Number         0  pi.o ABSOLUTE
    APP\Smc.c                                0x00000000   Number         0  smc.o ABSOLUTE
    APP\Svgen.c                              0x00000000   Number         0  svgen.o ABSOLUTE
    APP\Trig.c                               0x00000000   Number         0  trig.o ABSOLUTE
    APP\faultprotect.c                       0x00000000   Number         0  faultprotect.o ABSOLUTE
    CSL\CMSIS\CoreSupport\core_cm0.c         0x00000000   Number         0  core_cm0.o ABSOLUTE
    CSL\CMSIS\DeviceSupport\startup\arm\startup_SWM1800.s 0x00000000   Number         0  startup_swm1800.o ABSOLUTE
    CSL\CMSIS\DeviceSupport\system_SWM1800.c 0x00000000   Number         0  system_swm1800.o ABSOLUTE
    CSL\SWM1800_StdPeriph_Driver\SWM1800_adc.c 0x00000000   Number         0  swm1800_adc.o ABSOLUTE
    CSL\SWM1800_StdPeriph_Driver\SWM1800_cache.c 0x00000000   Number         0  swm1800_cache.o ABSOLUTE
    CSL\SWM1800_StdPeriph_Driver\SWM1800_can.c 0x00000000   Number         0  swm1800_can.o ABSOLUTE
    CSL\SWM1800_StdPeriph_Driver\SWM1800_cmp.c 0x00000000   Number         0  swm1800_cmp.o ABSOLUTE
    CSL\SWM1800_StdPeriph_Driver\SWM1800_cordic.c 0x00000000   Number         0  swm1800_cordic.o ABSOLUTE
    CSL\SWM1800_StdPeriph_Driver\SWM1800_div.c 0x00000000   Number         0  swm1800_div.o ABSOLUTE
    CSL\SWM1800_StdPeriph_Driver\SWM1800_dma.c 0x00000000   Number         0  swm1800_dma.o ABSOLUTE
    CSL\SWM1800_StdPeriph_Driver\SWM1800_exti.c 0x00000000   Number         0  swm1800_exti.o ABSOLUTE
    CSL\SWM1800_StdPeriph_Driver\SWM1800_flash.c 0x00000000   Number         0  swm1800_flash.o ABSOLUTE
    CSL\SWM1800_StdPeriph_Driver\SWM1800_gpio.c 0x00000000   Number         0  swm1800_gpio.o ABSOLUTE
    CSL\SWM1800_StdPeriph_Driver\SWM1800_i2c.c 0x00000000   Number         0  swm1800_i2c.o ABSOLUTE
    CSL\SWM1800_StdPeriph_Driver\SWM1800_irqmux.c 0x00000000   Number         0  swm1800_irqmux.o ABSOLUTE
    CSL\SWM1800_StdPeriph_Driver\SWM1800_port.c 0x00000000   Number         0  swm1800_port.o ABSOLUTE
    CSL\SWM1800_StdPeriph_Driver\SWM1800_pwm.c 0x00000000   Number         0  swm1800_pwm.o ABSOLUTE
    CSL\SWM1800_StdPeriph_Driver\SWM1800_sdadc.c 0x00000000   Number         0  swm1800_sdadc.o ABSOLUTE
    CSL\SWM1800_StdPeriph_Driver\SWM1800_slcd.c 0x00000000   Number         0  swm1800_slcd.o ABSOLUTE
    CSL\SWM1800_StdPeriph_Driver\SWM1800_spi.c 0x00000000   Number         0  swm1800_spi.o ABSOLUTE
    CSL\SWM1800_StdPeriph_Driver\SWM1800_timr.c 0x00000000   Number         0  swm1800_timr.o ABSOLUTE
    CSL\SWM1800_StdPeriph_Driver\SWM1800_uart.c 0x00000000   Number         0  swm1800_uart.o ABSOLUTE
    CSL\SWM1800_StdPeriph_Driver\SWM1800_wdt.c 0x00000000   Number         0  swm1800_wdt.o ABSOLUTE
    CSL\\CMSIS\\CoreSupport\\core_cm0.c      0x00000000   Number         0  core_cm0.o ABSOLUTE
    cdcmple.s                                0x00000000   Number         0  cdcmple.o ABSOLUTE
    cdrcmple.s                               0x00000000   Number         0  cdrcmple.o ABSOLUTE
    dc.s                                     0x00000000   Number         0  dc.o ABSOLUTE
    handlers.s                               0x00000000   Number         0  handlers.o ABSOLUTE
    init.s                                   0x00000000   Number         0  init.o ABSOLUTE
    .ARM.Collect$$$$00000000                 0x000000c8   Section        0  entry.o(.ARM.Collect$$$$00000000)
    .ARM.Collect$$$$00000001                 0x000000c8   Section        4  entry2.o(.ARM.Collect$$$$00000001)
    .ARM.Collect$$$$00000004                 0x000000cc   Section        4  entry5.o(.ARM.Collect$$$$00000004)
    .ARM.Collect$$$$00000008                 0x000000d0   Section        0  entry7b.o(.ARM.Collect$$$$00000008)
    .ARM.Collect$$$$0000000A                 0x000000d0   Section        0  entry8b.o(.ARM.Collect$$$$0000000A)
    .ARM.Collect$$$$0000000B                 0x000000d0   Section        8  entry9a.o(.ARM.Collect$$$$0000000B)
    .ARM.Collect$$$$0000000D                 0x000000d8   Section        0  entry10a.o(.ARM.Collect$$$$0000000D)
    .ARM.Collect$$$$0000000F                 0x000000d8   Section        0  entry11a.o(.ARM.Collect$$$$0000000F)
    .ARM.Collect$$$$00002712                 0x000000d8   Section        4  entry2.o(.ARM.Collect$$$$00002712)
    __lit__00000000                          0x000000d8   Data           4  entry2.o(.ARM.Collect$$$$00002712)
    .text                                    0x000000dc   Section        0  smc.o(.text)
    atan2CORDIC                              0x000000dd   Thumb Code   334  smc.o(.text)
    DIV_Div                                  0x0000042f   Thumb Code    18  smc.o(.text)
    DIV_Div_IsBusy                           0x00000441   Thumb Code    14  smc.o(.text)
    CORDIC_Arctan                            0x0000044f   Thumb Code   114  smc.o(.text)
    .text                                    0x000004f4   Section        0  initmcu.o(.text)
    .text                                    0x00000608   Section        0  fdweak.o(.text)
    .text                                    0x000006d8   Section        0  calcref.o(.text)
    .text                                    0x00000740   Section        0  clrkpark.o(.text)
    .text                                    0x000007b4   Section        0  invpark.o(.text)
    .text                                    0x00000800   Section        0  meascurr.o(.text)
    .text                                    0x00000894   Section        0  pi.o(.text)
    .text                                    0x0000096c   Section        0  svgen.o(.text)
    .text                                    0x00000f90   Section        0  trig.o(.text)
    .text                                    0x0000111c   Section        0  pmsm.o(.text)
    .text                                    0x000020ec   Section        0  faultprotect.o(.text)
    .text                                    0x00002a28   Section        0  swm1800_adc.o(.text)
    chn2idx                                  0x00002b95   Thumb Code    78  swm1800_adc.o(.text)
    .text                                    0x00002d2c   Section        0  swm1800_cordic.o(.text)
    .text                                    0x00002d56   Section        0  swm1800_div.o(.text)
    .text                                    0x00002d76   Section        0  swm1800_exti.o(.text)
    .text                                    0x00002e38   Section        0  swm1800_gpio.o(.text)
    .text                                    0x0000302c   Section        0  swm1800_irqmux.o(.text)
    NVIC_SetPriority                         0x000030f5   Thumb Code   110  swm1800_irqmux.o(.text)
    .text                                    0x00003170   Section        0  swm1800_port.o(.text)
    .text                                    0x00003420   Section        0  swm1800_pwm.o(.text)
    .text                                    0x00003b08   Section        0  swm1800_timr.o(.text)
    .text                                    0x00003dc8   Section        0  swm1800_uart.o(.text)
    .text                                    0x00003fa0   Section        0  system_swm1800.o(.text)
    switchToXTAL                             0x0000400f   Thumb Code    72  system_swm1800.o(.text)
    switchToRC24MHz                          0x00004057   Thumb Code    32  system_swm1800.o(.text)
    switchToRC32KHz                          0x00004077   Thumb Code    34  system_swm1800.o(.text)
    switchToRC12MHz                          0x00004099   Thumb Code    34  system_swm1800.o(.text)
    switchToRC48MHz                          0x000040bb   Thumb Code    34  system_swm1800.o(.text)
    switchToRC6MHz                           0x000040dd   Thumb Code    32  system_swm1800.o(.text)
    .text                                    0x000041e8   Section       80  startup_swm1800.o(.text)
    .text                                    0x00004238   Section        0  uidiv.o(.text)
    .text                                    0x00004264   Section        0  idiv.o(.text)
    .text                                    0x0000428c   Section        0  fmul.o(.text)
    .text                                    0x00004306   Section        0  fdiv.o(.text)
    .text                                    0x00004382   Section        0  fflti.o(.text)
    .text                                    0x00004398   Section        0  dflti.o(.text)
    .text                                    0x000043c0   Section        0  ffixi.o(.text)
    .text                                    0x000043f4   Section       40  cdcmple.o(.text)
    .text                                    0x0000441c   Section       40  cdrcmple.o(.text)
    .text                                    0x00004444   Section        0  fepilogue.o(.text)
    .text                                    0x00004444   Section        0  iusefp.o(.text)
    .text                                    0x000044c6   Section        0  depilogue.o(.text)
    .text                                    0x00004584   Section       36  init.o(.text)
    .text                                    0x000045a8   Section        0  llshl.o(.text)
    .text                                    0x000045c8   Section        0  llushr.o(.text)
    .text                                    0x000045ea   Section        0  __dczerorl.o(.text)
    i.CalcBEMF                               0x00004624   Section        0  smc.o(i.CalcBEMF)
    i.CalcEstI                               0x000046c8   Section        0  smc.o(i.CalcEstI)
    i.__ARM_clz                              0x00004754   Section        0  depilogue.o(i.__ARM_clz)
    i.__ARM_common_switch8                   0x00004782   Section        0  svgen.o(i.__ARM_common_switch8)
    i.__scatterload_copy                     0x0000479e   Section       14  handlers.o(i.__scatterload_copy)
    i.__scatterload_null                     0x000047ac   Section        2  handlers.o(i.__scatterload_null)
    i.__scatterload_zeroinit                 0x000047ae   Section       14  handlers.o(i.__scatterload_zeroinit)
    .constdata                               0x000047bc   Section     4096  svgen.o(.constdata)
    .constdata                               0x000057bc   Section      512  trig.o(.constdata)
    .data                                    0x20000000   Section       26  smc.o(.data)
    .data                                    0x2000001a   Section        4  meascurr.o(.data)
    .data                                    0x20000020   Section       48  svgen.o(.data)
    .data                                    0x20000050   Section      280  pmsm.o(.data)
    fg_out_time_num                          0x20000154   Data           4  pmsm.o(.data)
    InputFreqcnt_sum                         0x20000158   Data           4  pmsm.o(.data)
    last_inputfreqcnt                        0x2000015c   Data           4  pmsm.o(.data)
    AdCn                                     0x20000160   Data           1  pmsm.o(.data)
    last_fg_out_time                         0x20000164   Data           4  pmsm.o(.data)
    .data                                    0x20000168   Section       80  faultprotect.o(.data)
    dcbus_over_times                         0x20000188   Data           4  faultprotect.o(.data)
    dcbus_under_times                        0x2000018c   Data           4  faultprotect.o(.data)
    phase_protect_times                      0x20000190   Data           4  faultprotect.o(.data)
    phasecurrent_near_zero_number            0x20000194   Data           4  faultprotect.o(.data)
    motor_rotate_speed                       0x20000198   Data           4  faultprotect.o(.data)
    last_motor_rotate_speed                  0x2000019c   Data           4  faultprotect.o(.data)
    confirm_lose_phase_number                0x200001a0   Data           4  faultprotect.o(.data)
    confirm_phase_current_number             0x200001a4   Data           4  faultprotect.o(.data)
    confirm_ipm_fo_number                    0x200001a8   Data           4  faultprotect.o(.data)
    confirm_over_temp_times                  0x200001ac   Data           4  faultprotect.o(.data)
    fun_number                               0x200001b0   Data           4  faultprotect.o(.data)
    fun_number1                              0x200001b4   Data           4  faultprotect.o(.data)
    .data                                    0x200001b8   Section        8  system_swm1800.o(.data)
    .bss                                     0x200001c0   Section       80  fdweak.o(.bss)
    .bss                                     0x20000210   Section      212  pmsm.o(.bss)
    STACK                                    0x200002e8   Section     1024  startup_swm1800.o(STACK)
    Stack_Mem                                0x200002e8   Data        1024  startup_swm1800.o(STACK)

    Global Symbols

    Symbol Name                              Value     Ov Type        Size  Object(Section)

    BuildAttributes$$THM_ISAv3M$S$PE$A:L22$X:L11$S22$IEEE1$IW$USESV6$~STKCKD$USESV7$~SHL$OTIME$ROPI$EBA8$MICROLIB$REQ8$PRES8$EABIv2 0x00000000   Number         0  anon$$obj.o ABSOLUTE
    __ARM_use_no_argv                        0x00000000   Number         0  pmsm.o ABSOLUTE
    __Vectors                                0x00000000   Data           4  startup_swm1800.o(RESET)
    __cpp_initialize__aeabi_                  - Undefined Weak Reference
    __cxa_finalize                            - Undefined Weak Reference
    _clock_init                               - Undefined Weak Reference
    _microlib_exit                            - Undefined Weak Reference
    Reset_Handler                            0x000000c1   Thumb Code     4  startup_swm1800.o(RESET)
    __Vectors_End                            0x000000c1   Thumb Code     0  startup_swm1800.o(RESET)
    __Vectors_Size                           0x000000c0   Number         0  startup_swm1800.o ABSOLUTE
    __main                                   0x000000c9   Thumb Code     0  entry.o(.ARM.Collect$$$$00000000)
    _main_stk                                0x000000c9   Thumb Code     0  entry2.o(.ARM.Collect$$$$00000001)
    _main_scatterload                        0x000000cd   Thumb Code     0  entry5.o(.ARM.Collect$$$$00000004)
    __main_after_scatterload                 0x000000d1   Thumb Code     0  entry5.o(.ARM.Collect$$$$00000004)
    _main_clock                              0x000000d1   Thumb Code     0  entry7b.o(.ARM.Collect$$$$00000008)
    _main_cpp_init                           0x000000d1   Thumb Code     0  entry8b.o(.ARM.Collect$$$$0000000A)
    _main_init                               0x000000d1   Thumb Code     0  entry9a.o(.ARM.Collect$$$$0000000B)
    __rt_final_cpp                           0x000000d9   Thumb Code     0  entry10a.o(.ARM.Collect$$$$0000000D)
    __rt_final_exit                          0x000000d9   Thumb Code     0  entry11a.o(.ARM.Collect$$$$0000000F)
    SMC_Position_Estimation                  0x0000022b   Thumb Code   480  smc.o(.text)
    SMCInit                                  0x0000040b   Thumb Code    36  smc.o(.text)
    SetupPorts                               0x000004f5   Thumb Code   256  initmcu.o(.text)
    FieldWeakening                           0x00000609   Thumb Code   144  fdweak.o(.text)
    FWInit                                   0x00000699   Thumb Code    48  fdweak.o(.text)
    CalcRefVec                               0x000006d9   Thumb Code   100  calcref.o(.text)
    ClarkePark                               0x00000741   Thumb Code   110  clrkpark.o(.text)
    InvPark                                  0x000007b5   Thumb Code    76  invpark.o(.text)
    InitMeasCompCurr                         0x00000801   Thumb Code     6  meascurr.o(.text)
    MeasCompCurr                             0x00000807   Thumb Code   128  meascurr.o(.text)
    InitPI                                   0x00000895   Thumb Code     8  pi.o(.text)
    CalcPI                                   0x0000089d   Thumb Code   118  pi.o(.text)
    Cal_PID                                  0x00000913   Thumb Code    80  pi.o(.text)
    gabs                                     0x00000963   Thumb Code     8  pi.o(.text)
    dutypid                                  0x0000096d   Thumb Code    36  svgen.o(.text)
    Svpwm_Qua                                0x00000991   Thumb Code   202  svgen.o(.text)
    math_cal_0                               0x00000a5b   Thumb Code    52  svgen.o(.text)
    Svpwm_Duty                               0x00000a8f   Thumb Code   168  svgen.o(.text)
    Svpwm_Cal                                0x00000b37   Thumb Code   272  svgen.o(.text)
    CalcTimes                                0x00000c47   Thumb Code   216  svgen.o(.text)
    CalcSVGen                                0x00000d1f   Thumb Code   586  svgen.o(.text)
    SinCos                                   0x00000f91   Thumb Code   152  trig.o(.text)
    sqrt_16                                  0x00001029   Thumb Code    88  trig.o(.text)
    DIV_Fun                                  0x00001081   Thumb Code   150  trig.o(.text)
    UartInit                                 0x0000111d   Thumb Code    72  pmsm.o(.text)
    _CRC16                                   0x00001165   Thumb Code    80  pmsm.o(.text)
    uart_putstring2                          0x000011b5   Thumb Code    40  pmsm.o(.text)
    Communication                            0x000011dd   Thumb Code    92  pmsm.o(.text)
    SetupControlParameters                   0x00001239   Thumb Code   108  pmsm.o(.text)
    CountInputFreq                           0x000012a5   Thumb Code    34  pmsm.o(.text)
    calculate_rotate_speed                   0x000012c7   Thumb Code   120  pmsm.o(.text)
    CountInputFreq_Init                      0x0000133f   Thumb Code    62  pmsm.o(.text)
    SetupParm                                0x0000137d   Thumb Code   750  pmsm.o(.text)
    main                                     0x0000166b   Thumb Code   390  pmsm.o(.text)
    DoControl                                0x000017f1   Thumb Code   676  pmsm.o(.text)
    CalculateParkAngle                       0x00001a95   Thumb Code   438  pmsm.o(.text)
    IRQ0_Handler                             0x00001c4b   Thumb Code    88  pmsm.o(.text)
    IRQ4_Handler                             0x00001ca3   Thumb Code    44  pmsm.o(.text)
    IRQ1_Handler                             0x00001ccf   Thumb Code   582  pmsm.o(.text)
    IRQ2_Handler                             0x00001f15   Thumb Code    62  pmsm.o(.text)
    IRQ5_Handler                             0x00001f53   Thumb Code   216  pmsm.o(.text)
    DebounceDelay                            0x0000202b   Thumb Code    14  pmsm.o(.text)
    VoltRippleComp                           0x00002039   Thumb Code    90  pmsm.o(.text)
    SysLed_Twinkle                           0x000020ed   Thumb Code  1080  faultprotect.o(.text)
    dcbus_voltage_protect                    0x00002525   Thumb Code   196  faultprotect.o(.text)
    phase_current_max_check                  0x000025e9   Thumb Code   110  faultprotect.o(.text)
    phase_current_protect                    0x00002657   Thumb Code   132  faultprotect.o(.text)
    motor_lose_step_detect                   0x000026db   Thumb Code   140  faultprotect.o(.text)
    lose_phase_detect                        0x00002767   Thumb Code   104  faultprotect.o(.text)
    Phase_current_deviation                  0x000027cf   Thumb Code   136  faultprotect.o(.text)
    IPM_FO_detect                            0x00002857   Thumb Code    68  faultprotect.o(.text)
    Phase_Current_Offset_Advalue_detect      0x0000289b   Thumb Code   210  faultprotect.o(.text)
    Over_temperature_detect                  0x0000296d   Thumb Code    58  faultprotect.o(.text)
    motor_fault_init                         0x000029a7   Thumb Code    10  faultprotect.o(.text)
    motor_fault_detect                       0x000029b1   Thumb Code   100  faultprotect.o(.text)
    ADC_Close                                0x00002a29   Thumb Code    12  swm1800_adc.o(.text)
    ADC_Init                                 0x00002a35   Thumb Code   324  swm1800_adc.o(.text)
    ADC_Open                                 0x00002b79   Thumb Code    12  swm1800_adc.o(.text)
    ADC_Start                                0x00002b85   Thumb Code     6  swm1800_adc.o(.text)
    ADC_Stop                                 0x00002b8b   Thumb Code    10  swm1800_adc.o(.text)
    ADC_Read                                 0x00002be3   Thumb Code    30  swm1800_adc.o(.text)
    ADC_IsEOC                                0x00002c01   Thumb Code    28  swm1800_adc.o(.text)
    ADC_ChnOpen                              0x00002c1d   Thumb Code     8  swm1800_adc.o(.text)
    ADC_ChnClose                             0x00002c25   Thumb Code     8  swm1800_adc.o(.text)
    ADC_IntEOCEn                             0x00002c2d   Thumb Code    28  swm1800_adc.o(.text)
    ADC_IntEOCDis                            0x00002c49   Thumb Code    28  swm1800_adc.o(.text)
    ADC_IntEOCClr                            0x00002c65   Thumb Code    24  swm1800_adc.o(.text)
    ADC_IntEOCStat                           0x00002c7d   Thumb Code    36  swm1800_adc.o(.text)
    ADC_IntOVFEn                             0x00002ca1   Thumb Code    30  swm1800_adc.o(.text)
    ADC_IntOVFDis                            0x00002cbf   Thumb Code    30  swm1800_adc.o(.text)
    ADC_IntOVFClr                            0x00002cdd   Thumb Code    26  swm1800_adc.o(.text)
    ADC_IntOVFStat                           0x00002cf7   Thumb Code    38  swm1800_adc.o(.text)
    CORDIC_Init                              0x00002d2d   Thumb Code    42  swm1800_cordic.o(.text)
    DIV_Init                                 0x00002d57   Thumb Code    32  swm1800_div.o(.text)
    EXTI_Clear                               0x00002d77   Thumb Code     8  swm1800_exti.o(.text)
    EXTI_Init                                0x00002d7f   Thumb Code   138  swm1800_exti.o(.text)
    EXTI_Open                                0x00002e09   Thumb Code    12  swm1800_exti.o(.text)
    EXTI_Close                               0x00002e15   Thumb Code    12  swm1800_exti.o(.text)
    EXTI_State                               0x00002e21   Thumb Code    12  swm1800_exti.o(.text)
    EXTI_RawState                            0x00002e2d   Thumb Code    12  swm1800_exti.o(.text)
    GPIO_Init                                0x00002e39   Thumb Code   342  swm1800_gpio.o(.text)
    GPIO_SetBit                              0x00002f8f   Thumb Code    12  swm1800_gpio.o(.text)
    GPIO_ClrBit                              0x00002f9b   Thumb Code    12  swm1800_gpio.o(.text)
    GPIO_InvBit                              0x00002fa7   Thumb Code    12  swm1800_gpio.o(.text)
    GPIO_GetBit                              0x00002fb3   Thumb Code    12  swm1800_gpio.o(.text)
    GPIO_SetBits                             0x00002fbf   Thumb Code    24  swm1800_gpio.o(.text)
    GPIO_ClrBits                             0x00002fd7   Thumb Code    24  swm1800_gpio.o(.text)
    GPIO_InvBits                             0x00002fef   Thumb Code    24  swm1800_gpio.o(.text)
    GPIO_GetBits                             0x00003007   Thumb Code    22  swm1800_gpio.o(.text)
    IRQ_Connect                              0x0000302d   Thumb Code   130  swm1800_irqmux.o(.text)
    IRQ_Which                                0x000030af   Thumb Code    70  swm1800_irqmux.o(.text)
    PORT_Init                                0x00003171   Thumb Code   678  swm1800_port.o(.text)
    PWM_Stop                                 0x00003421   Thumb Code    98  swm1800_pwm.o(.text)
    PWM_Init                                 0x00003483   Thumb Code   256  swm1800_pwm.o(.text)
    PWM_Start                                0x00003583   Thumb Code    98  swm1800_pwm.o(.text)
    PWM_SetCycle                             0x000035e5   Thumb Code    16  swm1800_pwm.o(.text)
    PWM_GetCycle                             0x000035f5   Thumb Code    24  swm1800_pwm.o(.text)
    PWM_SetHDuty                             0x0000360d   Thumb Code    16  swm1800_pwm.o(.text)
    PWM_GetHDuty                             0x0000361d   Thumb Code    24  swm1800_pwm.o(.text)
    PWM_SetDeadzone                          0x00003635   Thumb Code    16  swm1800_pwm.o(.text)
    PWM_GetDeadzone                          0x00003645   Thumb Code    24  swm1800_pwm.o(.text)
    PWM_IntNCycleEn                          0x0000365d   Thumb Code   154  swm1800_pwm.o(.text)
    PWM_IntNCycleDis                         0x000036f7   Thumb Code   154  swm1800_pwm.o(.text)
    PWM_IntNCycleClr                         0x00003791   Thumb Code   106  swm1800_pwm.o(.text)
    PWM_IntNCycleStat                        0x000037fb   Thumb Code   152  swm1800_pwm.o(.text)
    PWM_IntHEndEn                            0x00003893   Thumb Code   170  swm1800_pwm.o(.text)
    PWM_IntHEndDis                           0x0000393d   Thumb Code   170  swm1800_pwm.o(.text)
    PWM_IntHEndClr                           0x000039e7   Thumb Code   122  swm1800_pwm.o(.text)
    PWM_IntHEndStat                          0x00003a61   Thumb Code   160  swm1800_pwm.o(.text)
    TIMR_INTClr                              0x00003b09   Thumb Code    58  swm1800_timr.o(.text)
    TIMR_Stop                                0x00003b43   Thumb Code    10  swm1800_timr.o(.text)
    TIMR_Init                                0x00003b4d   Thumb Code   204  swm1800_timr.o(.text)
    TIMR_Start                               0x00003c19   Thumb Code    10  swm1800_timr.o(.text)
    TIMR_Halt                                0x00003c23   Thumb Code    82  swm1800_timr.o(.text)
    TIMR_Resume                              0x00003c75   Thumb Code    82  swm1800_timr.o(.text)
    TIMR_SetPeriod                           0x00003cc7   Thumb Code     4  swm1800_timr.o(.text)
    TIMR_GetPeriod                           0x00003ccb   Thumb Code     6  swm1800_timr.o(.text)
    TIMR_GetCurValue                         0x00003cd1   Thumb Code     6  swm1800_timr.o(.text)
    TIMR_INTEn                               0x00003cd7   Thumb Code    82  swm1800_timr.o(.text)
    TIMR_INTDis                              0x00003d29   Thumb Code    82  swm1800_timr.o(.text)
    TIMR_INTStat                             0x00003d7b   Thumb Code    68  swm1800_timr.o(.text)
    UART_Close                               0x00003dc9   Thumb Code    12  swm1800_uart.o(.text)
    UART_Init                                0x00003dd5   Thumb Code   222  swm1800_uart.o(.text)
    UART_Open                                0x00003eb3   Thumb Code    12  swm1800_uart.o(.text)
    UART_WriteByte                           0x00003ebf   Thumb Code     4  swm1800_uart.o(.text)
    UART_ReadByte                            0x00003ec3   Thumb Code     8  swm1800_uart.o(.text)
    UART_IsDataValid                         0x00003ecb   Thumb Code    14  swm1800_uart.o(.text)
    UART_IsTXBusy                            0x00003ed9   Thumb Code    14  swm1800_uart.o(.text)
    UART_IsRXFIFOEmpty                       0x00003ee7   Thumb Code    12  swm1800_uart.o(.text)
    UART_IsTXFIFOFull                        0x00003ef3   Thumb Code    12  swm1800_uart.o(.text)
    UART_SetBaudrate                         0x00003eff   Thumb Code    34  swm1800_uart.o(.text)
    UART_GetBaudrate                         0x00003f21   Thumb Code    10  swm1800_uart.o(.text)
    UART_INTRXThresholdEn                    0x00003f2b   Thumb Code    10  swm1800_uart.o(.text)
    UART_INTRXThresholdDis                   0x00003f35   Thumb Code    10  swm1800_uart.o(.text)
    UART_INTRXThresholdStat                  0x00003f3f   Thumb Code    14  swm1800_uart.o(.text)
    UART_INTTXThresholdEn                    0x00003f4d   Thumb Code    10  swm1800_uart.o(.text)
    UART_INTTXThresholdDis                   0x00003f57   Thumb Code    10  swm1800_uart.o(.text)
    UART_INTTXThresholdStat                  0x00003f61   Thumb Code    14  swm1800_uart.o(.text)
    UART_INTTimeoutEn                        0x00003f6f   Thumb Code    12  swm1800_uart.o(.text)
    UART_INTTimeoutDis                       0x00003f7b   Thumb Code    12  swm1800_uart.o(.text)
    UART_INTTimeoutStat                      0x00003f87   Thumb Code    14  swm1800_uart.o(.text)
    SystemCoreClockUpdate                    0x00003fa1   Thumb Code   110  system_swm1800.o(.text)
    SystemInit                               0x000040fd   Thumb Code   198  system_swm1800.o(.text)
    NMI_Handler                              0x000041e9   Thumb Code     2  startup_swm1800.o(.text)
    HardFault_Handler                        0x000041eb   Thumb Code     2  startup_swm1800.o(.text)
    SVC_Handler                              0x000041ed   Thumb Code     2  startup_swm1800.o(.text)
    PendSV_Handler                           0x000041ef   Thumb Code     2  startup_swm1800.o(.text)
    SysTick_Handler                          0x000041f1   Thumb Code     2  startup_swm1800.o(.text)
    IRQ3_Handler                             0x000041f9   Thumb Code     2  startup_swm1800.o(.text)
    IRQ6_Handler                             0x000041ff   Thumb Code     2  startup_swm1800.o(.text)
    IRQ7_Handler                             0x00004201   Thumb Code     2  startup_swm1800.o(.text)
    IRQ8_Handler                             0x00004203   Thumb Code     2  startup_swm1800.o(.text)
    IRQ9_Handler                             0x00004205   Thumb Code     2  startup_swm1800.o(.text)
    IRQ10_Handler                            0x00004207   Thumb Code     2  startup_swm1800.o(.text)
    IRQ11_Handler                            0x00004209   Thumb Code     2  startup_swm1800.o(.text)
    IRQ12_Handler                            0x0000420b   Thumb Code     2  startup_swm1800.o(.text)
    IRQ13_Handler                            0x0000420d   Thumb Code     2  startup_swm1800.o(.text)
    IRQ14_Handler                            0x0000420f   Thumb Code     2  startup_swm1800.o(.text)
    IRQ15_Handler                            0x00004211   Thumb Code     2  startup_swm1800.o(.text)
    IRQ16_Handler                            0x00004213   Thumb Code     2  startup_swm1800.o(.text)
    IRQ17_Handler                            0x00004215   Thumb Code     2  startup_swm1800.o(.text)
    IRQ18_Handler                            0x00004217   Thumb Code     2  startup_swm1800.o(.text)
    IRQ19_Handler                            0x00004219   Thumb Code     2  startup_swm1800.o(.text)
    IRQ20_Handler                            0x0000421b   Thumb Code     2  startup_swm1800.o(.text)
    IRQ21_Handler                            0x0000421d   Thumb Code     2  startup_swm1800.o(.text)
    IRQ22_Handler                            0x0000421f   Thumb Code     2  startup_swm1800.o(.text)
    IRQ23_Handler                            0x00004221   Thumb Code     2  startup_swm1800.o(.text)
    IRQ24_Handler                            0x00004223   Thumb Code     2  startup_swm1800.o(.text)
    IRQ25_Handler                            0x00004225   Thumb Code     2  startup_swm1800.o(.text)
    IRQ26_Handler                            0x00004227   Thumb Code     2  startup_swm1800.o(.text)
    IRQ27_Handler                            0x00004229   Thumb Code     2  startup_swm1800.o(.text)
    IRQ28_Handler                            0x0000422d   Thumb Code     2  startup_swm1800.o(.text)
    IRQ29_Handler                            0x00004231   Thumb Code     2  startup_swm1800.o(.text)
    IRQ30_Handler                            0x00004233   Thumb Code     2  startup_swm1800.o(.text)
    IRQ31_Handler                            0x00004235   Thumb Code     2  startup_swm1800.o(.text)
    __aeabi_uidiv                            0x00004239   Thumb Code     0  uidiv.o(.text)
    __aeabi_uidivmod                         0x00004239   Thumb Code    44  uidiv.o(.text)
    __aeabi_idiv                             0x00004265   Thumb Code     0  idiv.o(.text)
    __aeabi_idivmod                          0x00004265   Thumb Code    40  idiv.o(.text)
    __aeabi_fmul                             0x0000428d   Thumb Code   122  fmul.o(.text)
    __aeabi_fdiv                             0x00004307   Thumb Code   124  fdiv.o(.text)
    __aeabi_i2f                              0x00004383   Thumb Code    22  fflti.o(.text)
    __aeabi_i2d                              0x00004399   Thumb Code    34  dflti.o(.text)
    __aeabi_f2iz                             0x000043c1   Thumb Code    50  ffixi.o(.text)
    __aeabi_cdcmpeq                          0x000043f5   Thumb Code     0  cdcmple.o(.text)
    __aeabi_cdcmple                          0x000043f5   Thumb Code    38  cdcmple.o(.text)
    __aeabi_cdrcmple                         0x0000441d   Thumb Code    38  cdrcmple.o(.text)
    __I$use$fp                               0x00004445   Thumb Code     0  iusefp.o(.text)
    _float_round                             0x00004445   Thumb Code    16  fepilogue.o(.text)
    _float_epilogue                          0x00004455   Thumb Code   114  fepilogue.o(.text)
    _double_round                            0x000044c7   Thumb Code    26  depilogue.o(.text)
    _double_epilogue                         0x000044e1   Thumb Code   164  depilogue.o(.text)
    __scatterload                            0x00004585   Thumb Code    28  init.o(.text)
    __scatterload_rt2                        0x00004585   Thumb Code     0  init.o(.text)
    __aeabi_llsl                             0x000045a9   Thumb Code    32  llshl.o(.text)
    _ll_shift_l                              0x000045a9   Thumb Code     0  llshl.o(.text)
    __aeabi_llsr                             0x000045c9   Thumb Code    34  llushr.o(.text)
    _ll_ushift_r                             0x000045c9   Thumb Code     0  llushr.o(.text)
    __decompress                             0x000045eb   Thumb Code     0  __dczerorl.o(.text)
    __decompress0                            0x000045eb   Thumb Code    58  __dczerorl.o(.text)
    CalcBEMF                                 0x00004625   Thumb Code   164  smc.o(i.CalcBEMF)
    CalcEstI                                 0x000046c9   Thumb Code   140  smc.o(i.CalcEstI)
    __ARM_clz                                0x00004755   Thumb Code    46  depilogue.o(i.__ARM_clz)
    __ARM_common_switch8                     0x00004783   Thumb Code    28  svgen.o(i.__ARM_common_switch8)
    __scatterload_copy                       0x0000479f   Thumb Code    14  handlers.o(i.__scatterload_copy)
    __scatterload_null                       0x000047ad   Thumb Code     2  handlers.o(i.__scatterload_null)
    __scatterload_zeroinit                   0x000047af   Thumb Code    14  handlers.o(i.__scatterload_zeroinit)
    sin_dat                                  0x000047bc   Data        4096  svgen.o(.constdata)
    SinTable                                 0x000057bc   Data         512  trig.o(.constdata)
    Region$$Table$$Base                      0x000059bc   Number         0  anon$$obj.o(Region$$Table)
    Region$$Table$$Limit                     0x000059dc   Number         0  anon$$obj.o(Region$$Table)
    tempv                                    0x20000000   Data           4  smc.o(.data)
    start                                    0x20000004   Data           4  smc.o(.data)
    IndPre                                   0x20000008   Data           4  smc.o(.data)
    dex                                      0x2000000c   Data           4  smc.o(.data)
    temptheta                                0x20000010   Data           4  smc.o(.data)
    PreOmega                                 0x20000014   Data           4  smc.o(.data)
    kseltemp                                 0x20000018   Data           2  smc.o(.data)
    CorrADC0                                 0x2000001a   Data           2  meascurr.o(.data)
    CorrADC1                                 0x2000001c   Data           2  meascurr.o(.data)
    sin_a_val                                0x20000020   Data           2  svgen.o(.data)
    sin60_a_val                              0x20000022   Data           2  svgen.o(.data)
    cos_val                                  0x20000024   Data           2  svgen.o(.data)
    qua                                      0x20000026   Data           2  svgen.o(.data)
    T_1                                      0x20000028   Data           2  svgen.o(.data)
    T_2                                      0x2000002a   Data           2  svgen.o(.data)
    pwm_duty_0                               0x2000002c   Data           4  svgen.o(.data)
    pwm_duty_1                               0x20000030   Data           4  svgen.o(.data)
    pwm_duty_2                               0x20000034   Data           4  svgen.o(.data)
    Ta                                       0x20000038   Data           2  svgen.o(.data)
    Tb                                       0x2000003a   Data           2  svgen.o(.data)
    Tc                                       0x2000003c   Data           2  svgen.o(.data)
    Pwm0A                                    0x2000003e   Data           2  svgen.o(.data)
    Pwm1A                                    0x20000040   Data           2  svgen.o(.data)
    Pwm2A                                    0x20000042   Data           2  svgen.o(.data)
    Va2andVb2                                0x20000044   Data           4  svgen.o(.data)
    Va2andVb2temp                            0x20000048   Data           4  svgen.o(.data)
    uout_ref                                 0x2000004c   Data           4  svgen.o(.data)
    CtrlParm                                 0x20000050   Data           6  pmsm.o(.data)
    fg_outfrequence                          0x20000058   Data           4  pmsm.o(.data)
    fg_out_time                              0x2000005c   Data           4  pmsm.o(.data)
    Duty0                                    0x20000060   Data           4  pmsm.o(.data)
    Duty1                                    0x20000064   Data           4  pmsm.o(.data)
    Duty2                                    0x20000068   Data           4  pmsm.o(.data)
    Sector                                   0x2000006c   Data           2  pmsm.o(.data)
    PWM_CLOCK_CYCLE                          0x2000006e   Data           2  pmsm.o(.data)
    LoopFlag                                 0x20000070   Data           2  pmsm.o(.data)
    uout                                     0x20000074   Data           4  pmsm.o(.data)
    Startup_Ramp                             0x20000078   Data           4  pmsm.o(.data)
    Startup_Lock                             0x2000007c   Data           4  pmsm.o(.data)
    uGF                                      0x20000080   Data           4  pmsm.o(.data)
    ReadADCParm                              0x20000084   Data           4  pmsm.o(.data)
    MeasCurrParm                             0x20000088   Data           8  pmsm.o(.data)
    MotorParm                                0x20000090   Data           8  pmsm.o(.data)
    ParkParm                                 0x20000098   Data          32  pmsm.o(.data)
    SVGenParm                                0x200000b8   Data           8  pmsm.o(.data)
    iADCisrCnt                               0x200000c0   Data           4  pmsm.o(.data)
    PrevTheta                                0x200000c4   Data           2  pmsm.o(.data)
    AccumTheta                               0x200000c6   Data           2  pmsm.o(.data)
    AccumThetaCnt                            0x200000c8   Data           4  pmsm.o(.data)
    qVdSquared                               0x200000cc   Data           4  pmsm.o(.data)
    DCbus                                    0x200000d0   Data           2  pmsm.o(.data)
    TargetDCbus                              0x200000d2   Data           2  pmsm.o(.data)
    Theta_error                              0x200000d4   Data           2  pmsm.o(.data)
    ADIa                                     0x200000d6   Data           2  pmsm.o(.data)
    ADIb                                     0x200000d8   Data           2  pmsm.o(.data)
    Loopflag                                 0x200000da   Data           2  pmsm.o(.data)
    Kself_omega0                             0x200000dc   Data           2  pmsm.o(.data)
    SpeedV                                   0x200000e0   Data           4  pmsm.o(.data)
    SpeedTotal                               0x200000e4   Data           4  pmsm.o(.data)
    Speedtimes                               0x200000e8   Data           4  pmsm.o(.data)
    VdcTotal                                 0x200000ec   Data           4  pmsm.o(.data)
    Vdctimes                                 0x200000f0   Data           4  pmsm.o(.data)
    Run_nomal                                0x200000f4   Data           2  pmsm.o(.data)
    delta_angle                              0x200000f6   Data           2  pmsm.o(.data)
    lost_times                               0x200000f8   Data           4  pmsm.o(.data)
    T0_t                                     0x200000fc   Data           2  pmsm.o(.data)
    PWM_per                                  0x200000fe   Data           2  pmsm.o(.data)
    SPEED                                    0x20000100   Data           2  pmsm.o(.data)
    Speed_REF                                0x20000102   Data           2  pmsm.o(.data)
    Speed_REF1                               0x20000104   Data           2  pmsm.o(.data)
    Speed_REF_old                            0x20000106   Data           2  pmsm.o(.data)
    W_REF                                    0x20000108   Data           2  pmsm.o(.data)
    speedtemp                                0x2000010a   Data           2  pmsm.o(.data)
    count                                    0x2000010c   Data           2  pmsm.o(.data)
    cntt                                     0x2000010e   Data           2  pmsm.o(.data)
    View1                                    0x20000110   Data           2  pmsm.o(.data)
    View2                                    0x20000112   Data           2  pmsm.o(.data)
    View3                                    0x20000114   Data           2  pmsm.o(.data)
    View4                                    0x20000116   Data           2  pmsm.o(.data)
    timecout                                 0x20000118   Data           4  pmsm.o(.data)
    rem                                      0x2000011c   Data           4  pmsm.o(.data)
    sector                                   0x20000120   Data           2  pmsm.o(.data)
    stas                                     0x20000122   Data           2  pmsm.o(.data)
    reset_delaytimes                         0x20000124   Data           2  pmsm.o(.data)
    VDC_status                               0x20000126   Data           2  pmsm.o(.data)
    VDC_status_tiems                         0x20000128   Data           2  pmsm.o(.data)
    SPREF                                    0x2000012a   Data           2  pmsm.o(.data)
    View_Variable1                           0x2000012c   Data           2  pmsm.o(.data)
    View_Variable2                           0x2000012e   Data           2  pmsm.o(.data)
    View_Variable3                           0x20000130   Data           2  pmsm.o(.data)
    View_Variable4                           0x20000132   Data           2  pmsm.o(.data)
    InputFreqcnt_index                       0x20000134   Data           4  pmsm.o(.data)
    Qref                                     0x20000138   Data           2  pmsm.o(.data)
    Dref                                     0x2000013a   Data           2  pmsm.o(.data)
    AccumCurrentCnt                          0x2000013c   Data           2  pmsm.o(.data)
    counum                                   0x20000140   Data           4  pmsm.o(.data)
    adc_flag                                 0x20000144   Data           2  pmsm.o(.data)
    inputfreqcnt                             0x20000148   Data           4  pmsm.o(.data)
    speedmax                                 0x2000014c   Data           2  pmsm.o(.data)
    SP_High                                  0x2000014e   Data           1  pmsm.o(.data)
    SP_Low                                   0x2000014f   Data           1  pmsm.o(.data)
    s1                                       0x20000150   Data           1  pmsm.o(.data)
    s2                                       0x20000151   Data           1  pmsm.o(.data)
    s3                                       0x20000152   Data           1  pmsm.o(.data)
    pfn                                      0x20000168   Data          32  faultprotect.o(.data)
    SystemCoreClock                          0x200001b8   Data           4  system_swm1800.o(.data)
    CyclesPerUs                              0x200001bc   Data           4  system_swm1800.o(.data)
    FdWeakParm                               0x200001c0   Data          80  fdweak.o(.bss)
    InpFreqCnt                               0x20000210   Data          16  pmsm.o(.bss)
    motor_fault                              0x20000220   Data          44  pmsm.o(.bss)
    Phase_current_detect                     0x2000024c   Data          16  pmsm.o(.bss)
    smc1                                     0x2000025c   Data          50  pmsm.o(.bss)
    PIParmD                                  0x20000290   Data          28  pmsm.o(.bss)
    PIParmQ                                  0x200002ac   Data          28  pmsm.o(.bss)
    PIParmW                                  0x200002c8   Data          28  pmsm.o(.bss)
    __initial_sp                             0x200006e8   Data           0  startup_swm1800.o(STACK)



==============================================================================

Memory Map of the image

  Image Entry point : 0x000000c9

  Load Region LR_IROM1 (Base: 0x00000000, Size: 0x00005b9c, Max: 0x00008000, ABSOLUTE, COMPRESSED[0x00005a24])

    Execution Region ER_IROM1 (Base: 0x00000000, Size: 0x000059dc, Max: 0x00008000, ABSOLUTE)

    Base Addr    Size         Type   Attr      Idx    E Section Name        Object

    0x00000000   0x000000c8   Code   RO          649    RESET               startup_swm1800.o
    0x000000c8   0x00000000   Code   RO          657  * .ARM.Collect$$$$00000000  mc_p.l(entry.o)
    0x000000c8   0x00000004   Code   RO          678    .ARM.Collect$$$$00000001  mc_p.l(entry2.o)
    0x000000cc   0x00000004   Code   RO          681    .ARM.Collect$$$$00000004  mc_p.l(entry5.o)
    0x000000d0   0x00000000   Code   RO          683    .ARM.Collect$$$$00000008  mc_p.l(entry7b.o)
    0x000000d0   0x00000000   Code   RO          685    .ARM.Collect$$$$0000000A  mc_p.l(entry8b.o)
    0x000000d0   0x00000008   Code   RO          686    .ARM.Collect$$$$0000000B  mc_p.l(entry9a.o)
    0x000000d8   0x00000000   Code   RO          688    .ARM.Collect$$$$0000000D  mc_p.l(entry10a.o)
    0x000000d8   0x00000000   Code   RO          690    .ARM.Collect$$$$0000000F  mc_p.l(entry11a.o)
    0x000000d8   0x00000004   Code   RO          679    .ARM.Collect$$$$00002712  mc_p.l(entry2.o)
    0x000000dc   0x00000418   Code   RO            1    .text               smc.o
    0x000004f4   0x00000114   Code   RO          132    .text               initmcu.o
    0x00000608   0x000000d0   Code   RO          150    .text               fdweak.o
    0x000006d8   0x00000068   Code   RO          168    .text               calcref.o
    0x00000740   0x00000074   Code   RO          188    .text               clrkpark.o
    0x000007b4   0x0000004c   Code   RO          200    .text               invpark.o
    0x00000800   0x00000094   Code   RO          212    .text               meascurr.o
    0x00000894   0x000000d6   Code   RO          232    .text               pi.o
    0x0000096a   0x00000002   PAD
    0x0000096c   0x00000624   Code   RO          247    .text               svgen.o
    0x00000f90   0x0000018c   Code   RO          270    .text               trig.o
    0x0000111c   0x00000fd0   Code   RO          288    .text               pmsm.o
    0x000020ec   0x0000093c   Code   RO          347    .text               faultprotect.o
    0x00002a28   0x00000304   Code   RO          366    .text               swm1800_adc.o
    0x00002d2c   0x0000002a   Code   RO          402    .text               swm1800_cordic.o
    0x00002d56   0x00000020   Code   RO          414    .text               swm1800_div.o
    0x00002d76   0x000000c2   Code   RO          438    .text               swm1800_exti.o
    0x00002e38   0x000001f4   Code   RO          465    .text               swm1800_gpio.o
    0x0000302c   0x00000144   Code   RO          489    .text               swm1800_irqmux.o
    0x00003170   0x000002b0   Code   RO          504    .text               swm1800_port.o
    0x00003420   0x000006e8   Code   RO          516    .text               swm1800_pwm.o
    0x00003b08   0x000002c0   Code   RO          564    .text               swm1800_timr.o
    0x00003dc8   0x000001d8   Code   RO          576    .text               swm1800_uart.o
    0x00003fa0   0x00000248   Code   RO          623    .text               system_swm1800.o
    0x000041e8   0x00000050   Code   RO          650    .text               startup_swm1800.o
    0x00004238   0x0000002c   Code   RO          660    .text               mc_p.l(uidiv.o)
    0x00004264   0x00000028   Code   RO          662    .text               mc_p.l(idiv.o)
    0x0000428c   0x0000007a   Code   RO          664    .text               mf_p.l(fmul.o)
    0x00004306   0x0000007c   Code   RO          666    .text               mf_p.l(fdiv.o)
    0x00004382   0x00000016   Code   RO          668    .text               mf_p.l(fflti.o)
    0x00004398   0x00000028   Code   RO          670    .text               mf_p.l(dflti.o)
    0x000043c0   0x00000032   Code   RO          672    .text               mf_p.l(ffixi.o)
    0x000043f2   0x00000002   PAD
    0x000043f4   0x00000028   Code   RO          674    .text               mf_p.l(cdcmple.o)
    0x0000441c   0x00000028   Code   RO          676    .text               mf_p.l(cdrcmple.o)
    0x00004444   0x00000000   Code   RO          692    .text               mc_p.l(iusefp.o)
    0x00004444   0x00000082   Code   RO          693    .text               mf_p.l(fepilogue.o)
    0x000044c6   0x000000be   Code   RO          695    .text               mf_p.l(depilogue.o)
    0x00004584   0x00000024   Code   RO          699    .text               mc_p.l(init.o)
    0x000045a8   0x00000020   Code   RO          701    .text               mc_p.l(llshl.o)
    0x000045c8   0x00000022   Code   RO          703    .text               mc_p.l(llushr.o)
    0x000045ea   0x0000003a   Code   RO          713    .text               mc_p.l(__dczerorl.o)
    0x00004624   0x000000a4   Code   RO           14    i.CalcBEMF          smc.o
    0x000046c8   0x0000008c   Code   RO           20    i.CalcEstI          smc.o
    0x00004754   0x0000002e   Code   RO          697    i.__ARM_clz         mf_p.l(depilogue.o)
    0x00004782   0x0000001c   Code   RO          260    i.__ARM_common_switch8  svgen.o
    0x0000479e   0x0000000e   Code   RO          707    i.__scatterload_copy  mc_p.l(handlers.o)
    0x000047ac   0x00000002   Code   RO          708    i.__scatterload_null  mc_p.l(handlers.o)
    0x000047ae   0x0000000e   Code   RO          709    i.__scatterload_zeroinit  mc_p.l(handlers.o)
    0x000047bc   0x00001000   Data   RO          248    .constdata          svgen.o
    0x000057bc   0x00000200   Data   RO          271    .constdata          trig.o
    0x000059bc   0x00000020   Data   RO          705    Region$$Table       anon$$obj.o


    Execution Region RW_IRAM1 (Base: 0x20000000, Size: 0x000006e8, Max: 0x00002000, ABSOLUTE, COMPRESSED[0x00000048])

    Base Addr    Size         Type   Attr      Idx    E Section Name        Object

    0x20000000   0x0000001a   Data   RW            2    .data               smc.o
    0x2000001a   0x00000004   Data   RW          213    .data               meascurr.o
    0x2000001e   0x00000002   PAD
    0x20000020   0x00000030   Data   RW          249    .data               svgen.o
    0x20000050   0x00000118   Data   RW          290    .data               pmsm.o
    0x20000168   0x00000050   Data   RW          348    .data               faultprotect.o
    0x200001b8   0x00000008   Data   RW          624    .data               system_swm1800.o
    0x200001c0   0x00000050   Zero   RW          151    .bss                fdweak.o
    0x20000210   0x000000d4   Zero   RW          289    .bss                pmsm.o
    0x200002e4   0x00000004   PAD
    0x200002e8   0x00000400   Zero   RW          647    STACK               startup_swm1800.o


==============================================================================

Image component sizes


      Code (inc. data)   RO Data    RW Data    ZI Data      Debug   Object Name

       104          4          0          0          0       1860   calcref.o
       116          6          0          0          0        869   clrkpark.o
         0          0          0          0          0         32   core_cm0.o
      2364        176          0         80          0       8131   faultprotect.o
       208         16          0          0         80       1405   fdweak.o
       276         20          0          0          0        473   initmcu.o
        76          0          0          0          0        842   invpark.o
       148         14          0          4          0       1939   meascurr.o
       214          0          0          0          0       1877   pi.o
      4048        546          0        280        212      20168   pmsm.o
      1352         52          0         26          0      79598   smc.o
       280        202          0          0       1024       2244   startup_swm1800.o
      1600        148       4096         48          0       4989   svgen.o
       772         16          0          0          0       4433   swm1800_adc.o
        42          0          0          0          0        922   swm1800_cordic.o
        32          0          0          0          0        867   swm1800_div.o
       194          0          0          0          0       1909   swm1800_exti.o
       500         16          0          0          0       2972   swm1800_gpio.o
       324         14          0          0          0       9344   swm1800_irqmux.o
       688         10          0          0          0       1296   swm1800_port.o
      1768         18          0          0          0       5094   swm1800_pwm.o
       704         10          0          0          0       2902   swm1800_timr.o
       472         12          0          0          0       4151   swm1800_uart.o
       584         46          0          8          0       1725   system_swm1800.o
       396          6        512          0          0       3084   trig.o

    ----------------------------------------------------------------------
     17264       1332       4640        448       1320     163126   Object Totals
         0          0         32          0          0          0   (incl. Generated)
         2          0          0          2          4          0   (incl. Padding)

    ----------------------------------------------------------------------

      Code (inc. data)   RO Data    RW Data    ZI Data      Debug   Library Member Name

        58          0          0          0          0          0   __dczerorl.o
         0          0          0          0          0          0   entry.o
         0          0          0          0          0          0   entry10a.o
         0          0          0          0          0          0   entry11a.o
         8          4          0          0          0          0   entry2.o
         4          0          0          0          0          0   entry5.o
         0          0          0          0          0          0   entry7b.o
         0          0          0          0          0          0   entry8b.o
         8          4          0          0          0          0   entry9a.o
        30          0          0          0          0          0   handlers.o
        40          0          0          0          0         72   idiv.o
        36          8          0          0          0         68   init.o
         0          0          0          0          0          0   iusefp.o
        32          0          0          0          0         68   llshl.o
        34          0          0          0          0         68   llushr.o
        44          0          0          0          0         72   uidiv.o
        40          2          0          0          0         68   cdcmple.o
        40          2          0          0          0         68   cdrcmple.o
       236          0          0          0          0        216   depilogue.o
        40          6          0          0          0         68   dflti.o
       124          0          0          0          0         72   fdiv.o
       130          0          0          0          0        144   fepilogue.o
        50          0          0          0          0         60   ffixi.o
        22          0          0          0          0         68   fflti.o
       122          0          0          0          0         72   fmul.o

    ----------------------------------------------------------------------
      1100         26          0          0          0       1184   Library Totals
         2          0          0          0          0          0   (incl. Padding)

    ----------------------------------------------------------------------

      Code (inc. data)   RO Data    RW Data    ZI Data      Debug   Library Name

       294         16          0          0          0        348   mc_p.l
       804         10          0          0          0        836   mf_p.l

    ----------------------------------------------------------------------
      1100         26          0          0          0       1184   Library Totals

    ----------------------------------------------------------------------

==============================================================================


      Code (inc. data)   RO Data    RW Data    ZI Data      Debug   

     18364       1358       4640        448       1320     162134   Grand Totals
     18364       1358       4640         72       1320     162134   ELF Image Totals (compressed)
     18364       1358       4640         72          0          0   ROM Totals

==============================================================================

    Total RO  Size (Code + RO Data)                23004 (  22.46kB)
    Total RW  Size (RW Data + ZI Data)              1768 (   1.73kB)
    Total ROM Size (Code + RO Data + RW Data)      23076 (  22.54kB)

==============================================================================

